target datalayout = "e-m:e-p270:32:32-p271:32:32-p272:64:64-i64:64-i128:128-f80:128-n8:16:32:64-S128"
target triple = "x86_64-pc-linux-gnu"

%"class.std::__shared_count" = type { ptr }
%"class.pxrInternal_v0_24__pxrReserved__::ArInMemoryAsset" = type { %"class.pxrInternal_v0_24__pxrReserved__::ArAsset", %"class.std::shared_ptr.0", i64 }
%"class.pxrInternal_v0_24__pxrReserved__::ArAsset" = type { ptr }
%"class.std::shared_ptr.0" = type { %"class.std::__shared_ptr.1" }
%"class.std::__shared_ptr.1" = type { ptr, %"class.std::__shared_count" }

; Function Attrs: mustprogress nounwind uwtable
define linkonce_odr noundef ptr @_ZNKSt12__shared_ptrIKcLN9__gnu_cxx12_Lock_policyE2EE3getEv(ptr noundef nonnull align 8 dereferenceable(16) %0) #1 comdat align 2 {
  %2 = alloca ptr, align 8
  store ptr %0, ptr %2, align 8
  %3 = load ptr, ptr %2, align 8
  %4 = getelementptr inbounds nuw %"class.std::__shared_ptr.1", ptr %3, i32 0, i32 0
  %5 = load ptr, ptr %4, align 8
  ret ptr %5
}

; Function Attrs: mustprogress nounwind uwtable
define noundef i64 @_ZNK32pxrInternal_v0_24__pxrReserved__15ArInMemoryAsset4ReadEPvmm(ptr noundef nonnull align 8 dereferenceable(32) %0, ptr noundef %1, i64 noundef %2, i64 noundef %3) unnamed_addr #1 align 2 {
  %5 = alloca i64, align 8
  %6 = alloca ptr, align 8
  %7 = alloca ptr, align 8
  %8 = alloca i64, align 8
  %9 = alloca i64, align 8
  store ptr %0, ptr %6, align 8
  store ptr %1, ptr %7, align 8
  store i64 %2, ptr %8, align 8
  store i64 %3, ptr %9, align 8
  %10 = load ptr, ptr %6, align 8
  %11 = load i64, ptr %9, align 8
  %12 = load i64, ptr %8, align 8
  %13 = add i64 %11, %12
  %14 = getelementptr inbounds nuw %"class.pxrInternal_v0_24__pxrReserved__::ArInMemoryAsset", ptr %10, i32 0, i32 2
  %15 = load i64, ptr %14, align 8
  %16 = icmp ugt i64 %13, %15
  br i1 %16, label %17, label %18

17:                                               ; preds = %4
  store i64 0, ptr %5, align 8
  br label %26

18:                                               ; preds = %4
  %19 = load ptr, ptr %7, align 8
  %20 = getelementptr inbounds nuw %"class.pxrInternal_v0_24__pxrReserved__::ArInMemoryAsset", ptr %10, i32 0, i32 1
  %21 = call noundef ptr @_ZNKSt12__shared_ptrIKcLN9__gnu_cxx12_Lock_policyE2EE3getEv(ptr noundef nonnull align 8 dereferenceable(16) %20) #11
  %22 = load i64, ptr %9, align 8
  %23 = getelementptr inbounds i8, ptr %21, i64 %22
  %24 = load i64, ptr %8, align 8
  call void @llvm.memcpy.p0.p0.i64(ptr align 1 %19, ptr align 1 %23, i64 %24, i1 false)
  %25 = load i64, ptr %8, align 8
  store i64 %25, ptr %5, align 8
  br label %26

26:                                               ; preds = %18, %17
  %27 = load i64, ptr %5, align 8
  ret i64 %27
}