; Function Attrs: mustprogress nofree norecurse nosync nounwind willreturn memory(readwrite, inaccessiblemem: none) uwtable
define noundef i64 @_ZNK32pxrInternal_v0_24__pxrReserved__15ArInMemoryAsset4ReadEPvmm(ptr nocapture noundef nonnull readonly align 8 dereferenceable(32) %0, ptr nocapture noundef writeonly %1, i64 noundef %2, i64 noundef %3) unnamed_addr #11 align 2 {
  %5 = add i64 %3, %2
  %6 = getelementptr inbounds nuw i8, ptr %0, i64 24
  %7 = load i64, ptr %6, align 8
  %8 = icmp ugt i64 %5, %7
  br i1 %8, label %13, label %9

9:                                                ; preds = %4
  %10 = getelementptr inbounds nuw i8, ptr %0, i64 8
  %11 = load ptr, ptr %10, align 8
  %12 = getelementptr inbounds i8, ptr %11, i64 %3
  tail call void @llvm.memcpy.p0.p0.i64(ptr align 1 %1, ptr align 1 %12, i64 %2, i1 false)
  br label %13

13:                                               ; preds = %4, %9
  %.0 = phi i64 [ %2, %9 ], [ 0, %4 ]
  ret i64 %.0
}